(lp0
S't_0_rst_cat_N-antithesis'
p1
aS't_0_rst_cat_N-attribution'
p2
aS't_0_rst_cat_N-circumstance'
p3
aS't_0_rst_cat_N-comment'
p4
aS't_0_rst_cat_N-comparison'
p5
aS't_0_rst_cat_N-concession'
p6
aS't_0_rst_cat_N-condition'
p7
aS't_0_rst_cat_N-consequence'
p8
aS't_0_rst_cat_N-contrast'
p9
aS't_0_rst_cat_N-definition'
p10
aS't_0_rst_cat_N-disjunction'
p11
aS't_0_rst_cat_N-elaboration'
p12
aS't_0_rst_cat_N-evidence'
p13
aS't_0_rst_cat_N-example'
p14
aS't_0_rst_cat_N-explanation'
p15
aS't_0_rst_cat_N-hypothetical'
p16
aS't_0_rst_cat_N-list'
p17
aS't_0_rst_cat_N-manner'
p18
aS't_0_rst_cat_N-means'
p19
aS't_0_rst_cat_N-purpose'
p20
aS't_0_rst_cat_N-question'
p21
aS't_0_rst_cat_N-reason'
p22
aS't_0_rst_cat_N-restatement'
p23
aS't_0_rst_cat_N-result'
p24
aS't_0_rst_cat_N-same_unit'
p25
aS't_0_rst_cat_N-sequence'
p26
aS't_0_rst_cat_N-temporal'
p27
aS't_0_rst_cat_N-textualorganization'
p28
aS't_0_rst_cat_N-topic'
p29
aS't_0_rst_cat_S-antithesis'
p30
aS't_0_rst_cat_S-attribution'
p31
aS't_0_rst_cat_S-circumstance'
p32
aS't_0_rst_cat_S-comment'
p33
aS't_0_rst_cat_S-comparison'
p34
aS't_0_rst_cat_S-concession'
p35
aS't_0_rst_cat_S-condition'
p36
aS't_0_rst_cat_S-consequence'
p37
aS't_0_rst_cat_S-definition'
p38
aS't_0_rst_cat_S-elaboration'
p39
aS't_0_rst_cat_S-example'
p40
aS't_0_rst_cat_S-explanation'
p41
aS't_0_rst_cat_S-hypothetical'
p42
aS't_0_rst_cat_S-manner'
p43
aS't_0_rst_cat_S-means'
p44
aS't_0_rst_cat_S-purpose'
p45
aS't_0_rst_cat_S-reason'
p46
aS't_0_rst_cat_S-restatement'
p47
aS't_0_rst_cat_S-result'
p48
aS't_0_rst_cat_S-temporal'
p49
aS't_0_rst_final_count>0'
p50
aS't_0_rst_final_count>1'
p51
aS't_0_rst_final_count>2'
p52
aS't_0_rst_final_count>3'
p53
aS't_0_rst_final_count>4'
p54
aS't_0_rst_final_count>5'
p55
aS't_0_rst_final_count>6'
p56
aS't_0_rst_final_count>7'
p57
aS't_0_rst_final_count>8'
p58
aS't_0_rst_final_count>9'
p59
aS't_0_internal_silence'
p60
aS't_0_max_energy'
p61
aS't_0_max_pitch'
p62
aS't_0_mean_energy'
p63
aS't_0_mean_pitch'
p64
aS't_0_min_energy'
p65
aS't_0_min_pitch'
p66
aS't_0_range_energy'
p67
aS't_0_range_pitch'
p68
aS't_0_std_energy'
p69
aS't_0_std_pitch'
p70
aS't_0_alliteration'
p71
aS't_0_homogeneity'
p72
aS't_0_plosive'
p73
aS't_0_rhyme'
p74
aS't_0_LIWC_achiev'
p75
aS't_0_LIWC_adj'
p76
aS't_0_LIWC_adverb'
p77
aS't_0_LIWC_affect'
p78
aS't_0_LIWC_affiliation'
p79
aS't_0_LIWC_anger'
p80
aS't_0_LIWC_anx'
p81
aS't_0_LIWC_article'
p82
aS't_0_LIWC_assent'
p83
aS't_0_LIWC_auxverb'
p84
aS't_0_LIWC_bio'
p85
aS't_0_LIWC_body'
p86
aS't_0_LIWC_cause'
p87
aS't_0_LIWC_certain'
p88
aS't_0_LIWC_cogproc'
p89
aS't_0_LIWC_compare'
p90
aS't_0_LIWC_conj'
p91
aS't_0_LIWC_death'
p92
aS't_0_LIWC_differ'
p93
aS't_0_LIWC_discrep'
p94
aS't_0_LIWC_drives'
p95
aS't_0_LIWC_family'
p96
aS't_0_LIWC_feel'
p97
aS't_0_LIWC_female'
p98
aS't_0_LIWC_filler'
p99
aS't_0_LIWC_focusfuture'
p100
aS't_0_LIWC_focuspast'
p101
aS't_0_LIWC_focuspresent'
p102
aS't_0_LIWC_friend'
p103
aS't_0_LIWC_function'
p104
aS't_0_LIWC_health'
p105
aS't_0_LIWC_hear'
p106
aS't_0_LIWC_home'
p107
aS't_0_LIWC_i'
p108
aS't_0_LIWC_informal'
p109
aS't_0_LIWC_ingest'
p110
aS't_0_LIWC_insight'
p111
aS't_0_LIWC_interrog'
p112
aS't_0_LIWC_ipron'
p113
aS't_0_LIWC_leisure'
p114
aS't_0_LIWC_male'
p115
aS't_0_LIWC_money'
p116
aS't_0_LIWC_motion'
p117
aS't_0_LIWC_negate'
p118
aS't_0_LIWC_negemo'
p119
aS't_0_LIWC_netspeak'
p120
aS't_0_LIWC_nonflu'
p121
aS't_0_LIWC_number'
p122
aS't_0_LIWC_percept'
p123
aS't_0_LIWC_posemo'
p124
aS't_0_LIWC_power'
p125
aS't_0_LIWC_ppron'
p126
aS't_0_LIWC_prep'
p127
aS't_0_LIWC_pronoun'
p128
aS't_0_LIWC_quant'
p129
aS't_0_LIWC_relativ'
p130
aS't_0_LIWC_relig'
p131
aS't_0_LIWC_reward'
p132
aS't_0_LIWC_risk'
p133
aS't_0_LIWC_sad'
p134
aS't_0_LIWC_see'
p135
aS't_0_LIWC_sexual'
p136
aS't_0_LIWC_shehe'
p137
aS't_0_LIWC_social'
p138
aS't_0_LIWC_space'
p139
aS't_0_LIWC_swear'
p140
aS't_0_LIWC_tentat'
p141
aS't_0_LIWC_they'
p142
aS't_0_LIWC_time'
p143
aS't_0_LIWC_verb'
p144
aS't_0_LIWC_we'
p145
aS't_0_LIWC_work'
p146
aS't_0_LIWC_you'
p147
aS't_0_applause_feature'
p148
aS't_0_thank_you_feature'
p149
aS't_0_max_phone_length'
p150
aS't_0_mean_phone_length'
p151
aS't_0_min_phone_length'
p152
aS't_0_substring'
p153
aS't_0_word_overlap'
p154
aS't_0_cosine'
p155
aS'delta_0_rst_cat_N-antithesis'
p156
aS'delta_0_rst_cat_N-attribution'
p157
aS'delta_0_rst_cat_N-circumstance'
p158
aS'delta_0_rst_cat_N-comment'
p159
aS'delta_0_rst_cat_N-comparison'
p160
aS'delta_0_rst_cat_N-concession'
p161
aS'delta_0_rst_cat_N-condition'
p162
aS'delta_0_rst_cat_N-consequence'
p163
aS'delta_0_rst_cat_N-contrast'
p164
aS'delta_0_rst_cat_N-definition'
p165
aS'delta_0_rst_cat_N-disjunction'
p166
aS'delta_0_rst_cat_N-elaboration'
p167
aS'delta_0_rst_cat_N-evidence'
p168
aS'delta_0_rst_cat_N-example'
p169
aS'delta_0_rst_cat_N-explanation'
p170
aS'delta_0_rst_cat_N-hypothetical'
p171
aS'delta_0_rst_cat_N-list'
p172
aS'delta_0_rst_cat_N-manner'
p173
aS'delta_0_rst_cat_N-means'
p174
aS'delta_0_rst_cat_N-purpose'
p175
aS'delta_0_rst_cat_N-question'
p176
aS'delta_0_rst_cat_N-reason'
p177
aS'delta_0_rst_cat_N-restatement'
p178
aS'delta_0_rst_cat_N-result'
p179
aS'delta_0_rst_cat_N-same_unit'
p180
aS'delta_0_rst_cat_N-sequence'
p181
aS'delta_0_rst_cat_N-temporal'
p182
aS'delta_0_rst_cat_N-textualorganization'
p183
aS'delta_0_rst_cat_N-topic'
p184
aS'delta_0_rst_cat_S-antithesis'
p185
aS'delta_0_rst_cat_S-attribution'
p186
aS'delta_0_rst_cat_S-circumstance'
p187
aS'delta_0_rst_cat_S-comment'
p188
aS'delta_0_rst_cat_S-comparison'
p189
aS'delta_0_rst_cat_S-concession'
p190
aS'delta_0_rst_cat_S-condition'
p191
aS'delta_0_rst_cat_S-consequence'
p192
aS'delta_0_rst_cat_S-definition'
p193
aS'delta_0_rst_cat_S-elaboration'
p194
aS'delta_0_rst_cat_S-example'
p195
aS'delta_0_rst_cat_S-explanation'
p196
aS'delta_0_rst_cat_S-hypothetical'
p197
aS'delta_0_rst_cat_S-manner'
p198
aS'delta_0_rst_cat_S-means'
p199
aS'delta_0_rst_cat_S-purpose'
p200
aS'delta_0_rst_cat_S-reason'
p201
aS'delta_0_rst_cat_S-restatement'
p202
aS'delta_0_rst_cat_S-result'
p203
aS'delta_0_rst_cat_S-temporal'
p204
aS'delta_0_rst_final_count>0'
p205
aS'delta_0_rst_final_count>1'
p206
aS'delta_0_rst_final_count>2'
p207
aS'delta_0_rst_final_count>3'
p208
aS'delta_0_rst_final_count>4'
p209
aS'delta_0_rst_final_count>5'
p210
aS'delta_0_rst_final_count>6'
p211
aS'delta_0_rst_final_count>7'
p212
aS'delta_0_rst_final_count>8'
p213
aS'delta_0_rst_final_count>9'
p214
aS'delta_0_internal_silence'
p215
aS'delta_0_max_energy'
p216
aS'delta_0_max_pitch'
p217
aS'delta_0_mean_energy'
p218
aS'delta_0_mean_pitch'
p219
aS'delta_0_min_energy'
p220
aS'delta_0_min_pitch'
p221
aS'delta_0_range_energy'
p222
aS'delta_0_range_pitch'
p223
aS'delta_0_std_energy'
p224
aS'delta_0_std_pitch'
p225
aS'delta_0_alliteration'
p226
aS'delta_0_homogeneity'
p227
aS'delta_0_plosive'
p228
aS'delta_0_rhyme'
p229
aS'delta_0_LIWC_achiev'
p230
aS'delta_0_LIWC_adj'
p231
aS'delta_0_LIWC_adverb'
p232
aS'delta_0_LIWC_affect'
p233
aS'delta_0_LIWC_affiliation'
p234
aS'delta_0_LIWC_anger'
p235
aS'delta_0_LIWC_anx'
p236
aS'delta_0_LIWC_article'
p237
aS'delta_0_LIWC_assent'
p238
aS'delta_0_LIWC_auxverb'
p239
aS'delta_0_LIWC_bio'
p240
aS'delta_0_LIWC_body'
p241
aS'delta_0_LIWC_cause'
p242
aS'delta_0_LIWC_certain'
p243
aS'delta_0_LIWC_cogproc'
p244
aS'delta_0_LIWC_compare'
p245
aS'delta_0_LIWC_conj'
p246
aS'delta_0_LIWC_death'
p247
aS'delta_0_LIWC_differ'
p248
aS'delta_0_LIWC_discrep'
p249
aS'delta_0_LIWC_drives'
p250
aS'delta_0_LIWC_family'
p251
aS'delta_0_LIWC_feel'
p252
aS'delta_0_LIWC_female'
p253
aS'delta_0_LIWC_filler'
p254
aS'delta_0_LIWC_focusfuture'
p255
aS'delta_0_LIWC_focuspast'
p256
aS'delta_0_LIWC_focuspresent'
p257
aS'delta_0_LIWC_friend'
p258
aS'delta_0_LIWC_function'
p259
aS'delta_0_LIWC_health'
p260
aS'delta_0_LIWC_hear'
p261
aS'delta_0_LIWC_home'
p262
aS'delta_0_LIWC_i'
p263
aS'delta_0_LIWC_informal'
p264
aS'delta_0_LIWC_ingest'
p265
aS'delta_0_LIWC_insight'
p266
aS'delta_0_LIWC_interrog'
p267
aS'delta_0_LIWC_ipron'
p268
aS'delta_0_LIWC_leisure'
p269
aS'delta_0_LIWC_male'
p270
aS'delta_0_LIWC_money'
p271
aS'delta_0_LIWC_motion'
p272
aS'delta_0_LIWC_negate'
p273
aS'delta_0_LIWC_negemo'
p274
aS'delta_0_LIWC_netspeak'
p275
aS'delta_0_LIWC_nonflu'
p276
aS'delta_0_LIWC_number'
p277
aS'delta_0_LIWC_percept'
p278
aS'delta_0_LIWC_posemo'
p279
aS'delta_0_LIWC_power'
p280
aS'delta_0_LIWC_ppron'
p281
aS'delta_0_LIWC_prep'
p282
aS'delta_0_LIWC_pronoun'
p283
aS'delta_0_LIWC_quant'
p284
aS'delta_0_LIWC_relativ'
p285
aS'delta_0_LIWC_relig'
p286
aS'delta_0_LIWC_reward'
p287
aS'delta_0_LIWC_risk'
p288
aS'delta_0_LIWC_sad'
p289
aS'delta_0_LIWC_see'
p290
aS'delta_0_LIWC_sexual'
p291
aS'delta_0_LIWC_shehe'
p292
aS'delta_0_LIWC_social'
p293
aS'delta_0_LIWC_space'
p294
aS'delta_0_LIWC_swear'
p295
aS'delta_0_LIWC_tentat'
p296
aS'delta_0_LIWC_they'
p297
aS'delta_0_LIWC_time'
p298
aS'delta_0_LIWC_verb'
p299
aS'delta_0_LIWC_we'
p300
aS'delta_0_LIWC_work'
p301
aS'delta_0_LIWC_you'
p302
aS'delta_0_applause_feature'
p303
aS'delta_0_thank_you_feature'
p304
aS'delta_0_max_phone_length'
p305
aS'delta_0_mean_phone_length'
p306
aS'delta_0_min_phone_length'
p307
aS'delta_0_substring'
p308
aS'delta_0_word_overlap'
p309
aS'delta_0_cosine'
p310
aS't_1_rst_cat_N-antithesis'
p311
aS't_1_rst_cat_N-attribution'
p312
aS't_1_rst_cat_N-circumstance'
p313
aS't_1_rst_cat_N-comment'
p314
aS't_1_rst_cat_N-comparison'
p315
aS't_1_rst_cat_N-concession'
p316
aS't_1_rst_cat_N-condition'
p317
aS't_1_rst_cat_N-consequence'
p318
aS't_1_rst_cat_N-contrast'
p319
aS't_1_rst_cat_N-definition'
p320
aS't_1_rst_cat_N-disjunction'
p321
aS't_1_rst_cat_N-elaboration'
p322
aS't_1_rst_cat_N-evidence'
p323
aS't_1_rst_cat_N-example'
p324
aS't_1_rst_cat_N-explanation'
p325
aS't_1_rst_cat_N-hypothetical'
p326
aS't_1_rst_cat_N-list'
p327
aS't_1_rst_cat_N-manner'
p328
aS't_1_rst_cat_N-means'
p329
aS't_1_rst_cat_N-purpose'
p330
aS't_1_rst_cat_N-question'
p331
aS't_1_rst_cat_N-reason'
p332
aS't_1_rst_cat_N-restatement'
p333
aS't_1_rst_cat_N-result'
p334
aS't_1_rst_cat_N-same_unit'
p335
aS't_1_rst_cat_N-sequence'
p336
aS't_1_rst_cat_N-temporal'
p337
aS't_1_rst_cat_N-textualorganization'
p338
aS't_1_rst_cat_N-topic'
p339
aS't_1_rst_cat_S-antithesis'
p340
aS't_1_rst_cat_S-attribution'
p341
aS't_1_rst_cat_S-circumstance'
p342
aS't_1_rst_cat_S-comment'
p343
aS't_1_rst_cat_S-comparison'
p344
aS't_1_rst_cat_S-concession'
p345
aS't_1_rst_cat_S-condition'
p346
aS't_1_rst_cat_S-consequence'
p347
aS't_1_rst_cat_S-definition'
p348
aS't_1_rst_cat_S-elaboration'
p349
aS't_1_rst_cat_S-example'
p350
aS't_1_rst_cat_S-explanation'
p351
aS't_1_rst_cat_S-hypothetical'
p352
aS't_1_rst_cat_S-manner'
p353
aS't_1_rst_cat_S-means'
p354
aS't_1_rst_cat_S-purpose'
p355
aS't_1_rst_cat_S-reason'
p356
aS't_1_rst_cat_S-restatement'
p357
aS't_1_rst_cat_S-result'
p358
aS't_1_rst_cat_S-temporal'
p359
aS't_1_rst_final_count>0'
p360
aS't_1_rst_final_count>1'
p361
aS't_1_rst_final_count>2'
p362
aS't_1_rst_final_count>3'
p363
aS't_1_rst_final_count>4'
p364
aS't_1_rst_final_count>5'
p365
aS't_1_rst_final_count>6'
p366
aS't_1_rst_final_count>7'
p367
aS't_1_rst_final_count>8'
p368
aS't_1_rst_final_count>9'
p369
aS't_1_internal_silence'
p370
aS't_1_max_energy'
p371
aS't_1_max_pitch'
p372
aS't_1_mean_energy'
p373
aS't_1_mean_pitch'
p374
aS't_1_min_energy'
p375
aS't_1_min_pitch'
p376
aS't_1_range_energy'
p377
aS't_1_range_pitch'
p378
aS't_1_std_energy'
p379
aS't_1_std_pitch'
p380
aS't_1_alliteration'
p381
aS't_1_homogeneity'
p382
aS't_1_plosive'
p383
aS't_1_rhyme'
p384
aS't_1_LIWC_achiev'
p385
aS't_1_LIWC_adj'
p386
aS't_1_LIWC_adverb'
p387
aS't_1_LIWC_affect'
p388
aS't_1_LIWC_affiliation'
p389
aS't_1_LIWC_anger'
p390
aS't_1_LIWC_anx'
p391
aS't_1_LIWC_article'
p392
aS't_1_LIWC_assent'
p393
aS't_1_LIWC_auxverb'
p394
aS't_1_LIWC_bio'
p395
aS't_1_LIWC_body'
p396
aS't_1_LIWC_cause'
p397
aS't_1_LIWC_certain'
p398
aS't_1_LIWC_cogproc'
p399
aS't_1_LIWC_compare'
p400
aS't_1_LIWC_conj'
p401
aS't_1_LIWC_death'
p402
aS't_1_LIWC_differ'
p403
aS't_1_LIWC_discrep'
p404
aS't_1_LIWC_drives'
p405
aS't_1_LIWC_family'
p406
aS't_1_LIWC_feel'
p407
aS't_1_LIWC_female'
p408
aS't_1_LIWC_filler'
p409
aS't_1_LIWC_focusfuture'
p410
aS't_1_LIWC_focuspast'
p411
aS't_1_LIWC_focuspresent'
p412
aS't_1_LIWC_friend'
p413
aS't_1_LIWC_function'
p414
aS't_1_LIWC_health'
p415
aS't_1_LIWC_hear'
p416
aS't_1_LIWC_home'
p417
aS't_1_LIWC_i'
p418
aS't_1_LIWC_informal'
p419
aS't_1_LIWC_ingest'
p420
aS't_1_LIWC_insight'
p421
aS't_1_LIWC_interrog'
p422
aS't_1_LIWC_ipron'
p423
aS't_1_LIWC_leisure'
p424
aS't_1_LIWC_male'
p425
aS't_1_LIWC_money'
p426
aS't_1_LIWC_motion'
p427
aS't_1_LIWC_negate'
p428
aS't_1_LIWC_negemo'
p429
aS't_1_LIWC_netspeak'
p430
aS't_1_LIWC_nonflu'
p431
aS't_1_LIWC_number'
p432
aS't_1_LIWC_percept'
p433
aS't_1_LIWC_posemo'
p434
aS't_1_LIWC_power'
p435
aS't_1_LIWC_ppron'
p436
aS't_1_LIWC_prep'
p437
aS't_1_LIWC_pronoun'
p438
aS't_1_LIWC_quant'
p439
aS't_1_LIWC_relativ'
p440
aS't_1_LIWC_relig'
p441
aS't_1_LIWC_reward'
p442
aS't_1_LIWC_risk'
p443
aS't_1_LIWC_sad'
p444
aS't_1_LIWC_see'
p445
aS't_1_LIWC_sexual'
p446
aS't_1_LIWC_shehe'
p447
aS't_1_LIWC_social'
p448
aS't_1_LIWC_space'
p449
aS't_1_LIWC_swear'
p450
aS't_1_LIWC_tentat'
p451
aS't_1_LIWC_they'
p452
aS't_1_LIWC_time'
p453
aS't_1_LIWC_verb'
p454
aS't_1_LIWC_we'
p455
aS't_1_LIWC_work'
p456
aS't_1_LIWC_you'
p457
aS't_1_applause_feature'
p458
aS't_1_thank_you_feature'
p459
aS't_1_max_phone_length'
p460
aS't_1_mean_phone_length'
p461
aS't_1_min_phone_length'
p462
aS't_1_substring'
p463
aS't_1_word_overlap'
p464
aS't_1_cosine'
p465
aS'delta_1_rst_cat_N-antithesis'
p466
aS'delta_1_rst_cat_N-attribution'
p467
aS'delta_1_rst_cat_N-circumstance'
p468
aS'delta_1_rst_cat_N-comment'
p469
aS'delta_1_rst_cat_N-comparison'
p470
aS'delta_1_rst_cat_N-concession'
p471
aS'delta_1_rst_cat_N-condition'
p472
aS'delta_1_rst_cat_N-consequence'
p473
aS'delta_1_rst_cat_N-contrast'
p474
aS'delta_1_rst_cat_N-definition'
p475
aS'delta_1_rst_cat_N-disjunction'
p476
aS'delta_1_rst_cat_N-elaboration'
p477
aS'delta_1_rst_cat_N-evidence'
p478
aS'delta_1_rst_cat_N-example'
p479
aS'delta_1_rst_cat_N-explanation'
p480
aS'delta_1_rst_cat_N-hypothetical'
p481
aS'delta_1_rst_cat_N-list'
p482
aS'delta_1_rst_cat_N-manner'
p483
aS'delta_1_rst_cat_N-means'
p484
aS'delta_1_rst_cat_N-purpose'
p485
aS'delta_1_rst_cat_N-question'
p486
aS'delta_1_rst_cat_N-reason'
p487
aS'delta_1_rst_cat_N-restatement'
p488
aS'delta_1_rst_cat_N-result'
p489
aS'delta_1_rst_cat_N-same_unit'
p490
aS'delta_1_rst_cat_N-sequence'
p491
aS'delta_1_rst_cat_N-temporal'
p492
aS'delta_1_rst_cat_N-textualorganization'
p493
aS'delta_1_rst_cat_N-topic'
p494
aS'delta_1_rst_cat_S-antithesis'
p495
aS'delta_1_rst_cat_S-attribution'
p496
aS'delta_1_rst_cat_S-circumstance'
p497
aS'delta_1_rst_cat_S-comment'
p498
aS'delta_1_rst_cat_S-comparison'
p499
aS'delta_1_rst_cat_S-concession'
p500
aS'delta_1_rst_cat_S-condition'
p501
aS'delta_1_rst_cat_S-consequence'
p502
aS'delta_1_rst_cat_S-definition'
p503
aS'delta_1_rst_cat_S-elaboration'
p504
aS'delta_1_rst_cat_S-example'
p505
aS'delta_1_rst_cat_S-explanation'
p506
aS'delta_1_rst_cat_S-hypothetical'
p507
aS'delta_1_rst_cat_S-manner'
p508
aS'delta_1_rst_cat_S-means'
p509
aS'delta_1_rst_cat_S-purpose'
p510
aS'delta_1_rst_cat_S-reason'
p511
aS'delta_1_rst_cat_S-restatement'
p512
aS'delta_1_rst_cat_S-result'
p513
aS'delta_1_rst_cat_S-temporal'
p514
aS'delta_1_rst_final_count>0'
p515
aS'delta_1_rst_final_count>1'
p516
aS'delta_1_rst_final_count>2'
p517
aS'delta_1_rst_final_count>3'
p518
aS'delta_1_rst_final_count>4'
p519
aS'delta_1_rst_final_count>5'
p520
aS'delta_1_rst_final_count>6'
p521
aS'delta_1_rst_final_count>7'
p522
aS'delta_1_rst_final_count>8'
p523
aS'delta_1_rst_final_count>9'
p524
aS'delta_1_internal_silence'
p525
aS'delta_1_max_energy'
p526
aS'delta_1_max_pitch'
p527
aS'delta_1_mean_energy'
p528
aS'delta_1_mean_pitch'
p529
aS'delta_1_min_energy'
p530
aS'delta_1_min_pitch'
p531
aS'delta_1_range_energy'
p532
aS'delta_1_range_pitch'
p533
aS'delta_1_std_energy'
p534
aS'delta_1_std_pitch'
p535
aS'delta_1_alliteration'
p536
aS'delta_1_homogeneity'
p537
aS'delta_1_plosive'
p538
aS'delta_1_rhyme'
p539
aS'delta_1_LIWC_achiev'
p540
aS'delta_1_LIWC_adj'
p541
aS'delta_1_LIWC_adverb'
p542
aS'delta_1_LIWC_affect'
p543
aS'delta_1_LIWC_affiliation'
p544
aS'delta_1_LIWC_anger'
p545
aS'delta_1_LIWC_anx'
p546
aS'delta_1_LIWC_article'
p547
aS'delta_1_LIWC_assent'
p548
aS'delta_1_LIWC_auxverb'
p549
aS'delta_1_LIWC_bio'
p550
aS'delta_1_LIWC_body'
p551
aS'delta_1_LIWC_cause'
p552
aS'delta_1_LIWC_certain'
p553
aS'delta_1_LIWC_cogproc'
p554
aS'delta_1_LIWC_compare'
p555
aS'delta_1_LIWC_conj'
p556
aS'delta_1_LIWC_death'
p557
aS'delta_1_LIWC_differ'
p558
aS'delta_1_LIWC_discrep'
p559
aS'delta_1_LIWC_drives'
p560
aS'delta_1_LIWC_family'
p561
aS'delta_1_LIWC_feel'
p562
aS'delta_1_LIWC_female'
p563
aS'delta_1_LIWC_filler'
p564
aS'delta_1_LIWC_focusfuture'
p565
aS'delta_1_LIWC_focuspast'
p566
aS'delta_1_LIWC_focuspresent'
p567
aS'delta_1_LIWC_friend'
p568
aS'delta_1_LIWC_function'
p569
aS'delta_1_LIWC_health'
p570
aS'delta_1_LIWC_hear'
p571
aS'delta_1_LIWC_home'
p572
aS'delta_1_LIWC_i'
p573
aS'delta_1_LIWC_informal'
p574
aS'delta_1_LIWC_ingest'
p575
aS'delta_1_LIWC_insight'
p576
aS'delta_1_LIWC_interrog'
p577
aS'delta_1_LIWC_ipron'
p578
aS'delta_1_LIWC_leisure'
p579
aS'delta_1_LIWC_male'
p580
aS'delta_1_LIWC_money'
p581
aS'delta_1_LIWC_motion'
p582
aS'delta_1_LIWC_negate'
p583
aS'delta_1_LIWC_negemo'
p584
aS'delta_1_LIWC_netspeak'
p585
aS'delta_1_LIWC_nonflu'
p586
aS'delta_1_LIWC_number'
p587
aS'delta_1_LIWC_percept'
p588
aS'delta_1_LIWC_posemo'
p589
aS'delta_1_LIWC_power'
p590
aS'delta_1_LIWC_ppron'
p591
aS'delta_1_LIWC_prep'
p592
aS'delta_1_LIWC_pronoun'
p593
aS'delta_1_LIWC_quant'
p594
aS'delta_1_LIWC_relativ'
p595
aS'delta_1_LIWC_relig'
p596
aS'delta_1_LIWC_reward'
p597
aS'delta_1_LIWC_risk'
p598
aS'delta_1_LIWC_sad'
p599
aS'delta_1_LIWC_see'
p600
aS'delta_1_LIWC_sexual'
p601
aS'delta_1_LIWC_shehe'
p602
aS'delta_1_LIWC_social'
p603
aS'delta_1_LIWC_space'
p604
aS'delta_1_LIWC_swear'
p605
aS'delta_1_LIWC_tentat'
p606
aS'delta_1_LIWC_they'
p607
aS'delta_1_LIWC_time'
p608
aS'delta_1_LIWC_verb'
p609
aS'delta_1_LIWC_we'
p610
aS'delta_1_LIWC_work'
p611
aS'delta_1_LIWC_you'
p612
aS'delta_1_applause_feature'
p613
aS'delta_1_thank_you_feature'
p614
aS'delta_1_max_phone_length'
p615
aS'delta_1_mean_phone_length'
p616
aS'delta_1_min_phone_length'
p617
aS'delta_1_substring'
p618
aS'delta_1_word_overlap'
p619
aS'delta_1_cosine'
p620
aS't_2_rst_cat_N-antithesis'
p621
aS't_2_rst_cat_N-attribution'
p622
aS't_2_rst_cat_N-circumstance'
p623
aS't_2_rst_cat_N-comment'
p624
aS't_2_rst_cat_N-comparison'
p625
aS't_2_rst_cat_N-concession'
p626
aS't_2_rst_cat_N-condition'
p627
aS't_2_rst_cat_N-consequence'
p628
aS't_2_rst_cat_N-contrast'
p629
aS't_2_rst_cat_N-definition'
p630
aS't_2_rst_cat_N-disjunction'
p631
aS't_2_rst_cat_N-elaboration'
p632
aS't_2_rst_cat_N-evidence'
p633
aS't_2_rst_cat_N-example'
p634
aS't_2_rst_cat_N-explanation'
p635
aS't_2_rst_cat_N-hypothetical'
p636
aS't_2_rst_cat_N-list'
p637
aS't_2_rst_cat_N-manner'
p638
aS't_2_rst_cat_N-means'
p639
aS't_2_rst_cat_N-purpose'
p640
aS't_2_rst_cat_N-question'
p641
aS't_2_rst_cat_N-reason'
p642
aS't_2_rst_cat_N-restatement'
p643
aS't_2_rst_cat_N-result'
p644
aS't_2_rst_cat_N-same_unit'
p645
aS't_2_rst_cat_N-sequence'
p646
aS't_2_rst_cat_N-temporal'
p647
aS't_2_rst_cat_N-textualorganization'
p648
aS't_2_rst_cat_N-topic'
p649
aS't_2_rst_cat_S-antithesis'
p650
aS't_2_rst_cat_S-attribution'
p651
aS't_2_rst_cat_S-circumstance'
p652
aS't_2_rst_cat_S-comment'
p653
aS't_2_rst_cat_S-comparison'
p654
aS't_2_rst_cat_S-concession'
p655
aS't_2_rst_cat_S-condition'
p656
aS't_2_rst_cat_S-consequence'
p657
aS't_2_rst_cat_S-definition'
p658
aS't_2_rst_cat_S-elaboration'
p659
aS't_2_rst_cat_S-example'
p660
aS't_2_rst_cat_S-explanation'
p661
aS't_2_rst_cat_S-hypothetical'
p662
aS't_2_rst_cat_S-manner'
p663
aS't_2_rst_cat_S-means'
p664
aS't_2_rst_cat_S-purpose'
p665
aS't_2_rst_cat_S-reason'
p666
aS't_2_rst_cat_S-restatement'
p667
aS't_2_rst_cat_S-result'
p668
aS't_2_rst_cat_S-temporal'
p669
aS't_2_rst_final_count>0'
p670
aS't_2_rst_final_count>1'
p671
aS't_2_rst_final_count>2'
p672
aS't_2_rst_final_count>3'
p673
aS't_2_rst_final_count>4'
p674
aS't_2_rst_final_count>5'
p675
aS't_2_rst_final_count>6'
p676
aS't_2_rst_final_count>7'
p677
aS't_2_rst_final_count>8'
p678
aS't_2_rst_final_count>9'
p679
aS't_2_internal_silence'
p680
aS't_2_max_energy'
p681
aS't_2_max_pitch'
p682
aS't_2_mean_energy'
p683
aS't_2_mean_pitch'
p684
aS't_2_min_energy'
p685
aS't_2_min_pitch'
p686
aS't_2_range_energy'
p687
aS't_2_range_pitch'
p688
aS't_2_std_energy'
p689
aS't_2_std_pitch'
p690
aS't_2_alliteration'
p691
aS't_2_homogeneity'
p692
aS't_2_plosive'
p693
aS't_2_rhyme'
p694
aS't_2_LIWC_achiev'
p695
aS't_2_LIWC_adj'
p696
aS't_2_LIWC_adverb'
p697
aS't_2_LIWC_affect'
p698
aS't_2_LIWC_affiliation'
p699
aS't_2_LIWC_anger'
p700
aS't_2_LIWC_anx'
p701
aS't_2_LIWC_article'
p702
aS't_2_LIWC_assent'
p703
aS't_2_LIWC_auxverb'
p704
aS't_2_LIWC_bio'
p705
aS't_2_LIWC_body'
p706
aS't_2_LIWC_cause'
p707
aS't_2_LIWC_certain'
p708
aS't_2_LIWC_cogproc'
p709
aS't_2_LIWC_compare'
p710
aS't_2_LIWC_conj'
p711
aS't_2_LIWC_death'
p712
aS't_2_LIWC_differ'
p713
aS't_2_LIWC_discrep'
p714
aS't_2_LIWC_drives'
p715
aS't_2_LIWC_family'
p716
aS't_2_LIWC_feel'
p717
aS't_2_LIWC_female'
p718
aS't_2_LIWC_filler'
p719
aS't_2_LIWC_focusfuture'
p720
aS't_2_LIWC_focuspast'
p721
aS't_2_LIWC_focuspresent'
p722
aS't_2_LIWC_friend'
p723
aS't_2_LIWC_function'
p724
aS't_2_LIWC_health'
p725
aS't_2_LIWC_hear'
p726
aS't_2_LIWC_home'
p727
aS't_2_LIWC_i'
p728
aS't_2_LIWC_informal'
p729
aS't_2_LIWC_ingest'
p730
aS't_2_LIWC_insight'
p731
aS't_2_LIWC_interrog'
p732
aS't_2_LIWC_ipron'
p733
aS't_2_LIWC_leisure'
p734
aS't_2_LIWC_male'
p735
aS't_2_LIWC_money'
p736
aS't_2_LIWC_motion'
p737
aS't_2_LIWC_negate'
p738
aS't_2_LIWC_negemo'
p739
aS't_2_LIWC_netspeak'
p740
aS't_2_LIWC_nonflu'
p741
aS't_2_LIWC_number'
p742
aS't_2_LIWC_percept'
p743
aS't_2_LIWC_posemo'
p744
aS't_2_LIWC_power'
p745
aS't_2_LIWC_ppron'
p746
aS't_2_LIWC_prep'
p747
aS't_2_LIWC_pronoun'
p748
aS't_2_LIWC_quant'
p749
aS't_2_LIWC_relativ'
p750
aS't_2_LIWC_relig'
p751
aS't_2_LIWC_reward'
p752
aS't_2_LIWC_risk'
p753
aS't_2_LIWC_sad'
p754
aS't_2_LIWC_see'
p755
aS't_2_LIWC_sexual'
p756
aS't_2_LIWC_shehe'
p757
aS't_2_LIWC_social'
p758
aS't_2_LIWC_space'
p759
aS't_2_LIWC_swear'
p760
aS't_2_LIWC_tentat'
p761
aS't_2_LIWC_they'
p762
aS't_2_LIWC_time'
p763
aS't_2_LIWC_verb'
p764
aS't_2_LIWC_we'
p765
aS't_2_LIWC_work'
p766
aS't_2_LIWC_you'
p767
aS't_2_applause_feature'
p768
aS't_2_thank_you_feature'
p769
aS't_2_max_phone_length'
p770
aS't_2_mean_phone_length'
p771
aS't_2_min_phone_length'
p772
aS't_2_substring'
p773
aS't_2_word_overlap'
p774
aS't_2_cosine'
p775
aS'delta_2_rst_cat_N-antithesis'
p776
aS'delta_2_rst_cat_N-attribution'
p777
aS'delta_2_rst_cat_N-circumstance'
p778
aS'delta_2_rst_cat_N-comment'
p779
aS'delta_2_rst_cat_N-comparison'
p780
aS'delta_2_rst_cat_N-concession'
p781
aS'delta_2_rst_cat_N-condition'
p782
aS'delta_2_rst_cat_N-consequence'
p783
aS'delta_2_rst_cat_N-contrast'
p784
aS'delta_2_rst_cat_N-definition'
p785
aS'delta_2_rst_cat_N-disjunction'
p786
aS'delta_2_rst_cat_N-elaboration'
p787
aS'delta_2_rst_cat_N-evidence'
p788
aS'delta_2_rst_cat_N-example'
p789
aS'delta_2_rst_cat_N-explanation'
p790
aS'delta_2_rst_cat_N-hypothetical'
p791
aS'delta_2_rst_cat_N-list'
p792
aS'delta_2_rst_cat_N-manner'
p793
aS'delta_2_rst_cat_N-means'
p794
aS'delta_2_rst_cat_N-purpose'
p795
aS'delta_2_rst_cat_N-question'
p796
aS'delta_2_rst_cat_N-reason'
p797
aS'delta_2_rst_cat_N-restatement'
p798
aS'delta_2_rst_cat_N-result'
p799
aS'delta_2_rst_cat_N-same_unit'
p800
aS'delta_2_rst_cat_N-sequence'
p801
aS'delta_2_rst_cat_N-temporal'
p802
aS'delta_2_rst_cat_N-textualorganization'
p803
aS'delta_2_rst_cat_N-topic'
p804
aS'delta_2_rst_cat_S-antithesis'
p805
aS'delta_2_rst_cat_S-attribution'
p806
aS'delta_2_rst_cat_S-circumstance'
p807
aS'delta_2_rst_cat_S-comment'
p808
aS'delta_2_rst_cat_S-comparison'
p809
aS'delta_2_rst_cat_S-concession'
p810
aS'delta_2_rst_cat_S-condition'
p811
aS'delta_2_rst_cat_S-consequence'
p812
aS'delta_2_rst_cat_S-definition'
p813
aS'delta_2_rst_cat_S-elaboration'
p814
aS'delta_2_rst_cat_S-example'
p815
aS'delta_2_rst_cat_S-explanation'
p816
aS'delta_2_rst_cat_S-hypothetical'
p817
aS'delta_2_rst_cat_S-manner'
p818
aS'delta_2_rst_cat_S-means'
p819
aS'delta_2_rst_cat_S-purpose'
p820
aS'delta_2_rst_cat_S-reason'
p821
aS'delta_2_rst_cat_S-restatement'
p822
aS'delta_2_rst_cat_S-result'
p823
aS'delta_2_rst_cat_S-temporal'
p824
aS'delta_2_rst_final_count>0'
p825
aS'delta_2_rst_final_count>1'
p826
aS'delta_2_rst_final_count>2'
p827
aS'delta_2_rst_final_count>3'
p828
aS'delta_2_rst_final_count>4'
p829
aS'delta_2_rst_final_count>5'
p830
aS'delta_2_rst_final_count>6'
p831
aS'delta_2_rst_final_count>7'
p832
aS'delta_2_rst_final_count>8'
p833
aS'delta_2_rst_final_count>9'
p834
aS'delta_2_internal_silence'
p835
aS'delta_2_max_energy'
p836
aS'delta_2_max_pitch'
p837
aS'delta_2_mean_energy'
p838
aS'delta_2_mean_pitch'
p839
aS'delta_2_min_energy'
p840
aS'delta_2_min_pitch'
p841
aS'delta_2_range_energy'
p842
aS'delta_2_range_pitch'
p843
aS'delta_2_std_energy'
p844
aS'delta_2_std_pitch'
p845
aS'delta_2_alliteration'
p846
aS'delta_2_homogeneity'
p847
aS'delta_2_plosive'
p848
aS'delta_2_rhyme'
p849
aS'delta_2_LIWC_achiev'
p850
aS'delta_2_LIWC_adj'
p851
aS'delta_2_LIWC_adverb'
p852
aS'delta_2_LIWC_affect'
p853
aS'delta_2_LIWC_affiliation'
p854
aS'delta_2_LIWC_anger'
p855
aS'delta_2_LIWC_anx'
p856
aS'delta_2_LIWC_article'
p857
aS'delta_2_LIWC_assent'
p858
aS'delta_2_LIWC_auxverb'
p859
aS'delta_2_LIWC_bio'
p860
aS'delta_2_LIWC_body'
p861
aS'delta_2_LIWC_cause'
p862
aS'delta_2_LIWC_certain'
p863
aS'delta_2_LIWC_cogproc'
p864
aS'delta_2_LIWC_compare'
p865
aS'delta_2_LIWC_conj'
p866
aS'delta_2_LIWC_death'
p867
aS'delta_2_LIWC_differ'
p868
aS'delta_2_LIWC_discrep'
p869
aS'delta_2_LIWC_drives'
p870
aS'delta_2_LIWC_family'
p871
aS'delta_2_LIWC_feel'
p872
aS'delta_2_LIWC_female'
p873
aS'delta_2_LIWC_filler'
p874
aS'delta_2_LIWC_focusfuture'
p875
aS'delta_2_LIWC_focuspast'
p876
aS'delta_2_LIWC_focuspresent'
p877
aS'delta_2_LIWC_friend'
p878
aS'delta_2_LIWC_function'
p879
aS'delta_2_LIWC_health'
p880
aS'delta_2_LIWC_hear'
p881
aS'delta_2_LIWC_home'
p882
aS'delta_2_LIWC_i'
p883
aS'delta_2_LIWC_informal'
p884
aS'delta_2_LIWC_ingest'
p885
aS'delta_2_LIWC_insight'
p886
aS'delta_2_LIWC_interrog'
p887
aS'delta_2_LIWC_ipron'
p888
aS'delta_2_LIWC_leisure'
p889
aS'delta_2_LIWC_male'
p890
aS'delta_2_LIWC_money'
p891
aS'delta_2_LIWC_motion'
p892
aS'delta_2_LIWC_negate'
p893
aS'delta_2_LIWC_negemo'
p894
aS'delta_2_LIWC_netspeak'
p895
aS'delta_2_LIWC_nonflu'
p896
aS'delta_2_LIWC_number'
p897
aS'delta_2_LIWC_percept'
p898
aS'delta_2_LIWC_posemo'
p899
aS'delta_2_LIWC_power'
p900
aS'delta_2_LIWC_ppron'
p901
aS'delta_2_LIWC_prep'
p902
aS'delta_2_LIWC_pronoun'
p903
aS'delta_2_LIWC_quant'
p904
aS'delta_2_LIWC_relativ'
p905
aS'delta_2_LIWC_relig'
p906
aS'delta_2_LIWC_reward'
p907
aS'delta_2_LIWC_risk'
p908
aS'delta_2_LIWC_sad'
p909
aS'delta_2_LIWC_see'
p910
aS'delta_2_LIWC_sexual'
p911
aS'delta_2_LIWC_shehe'
p912
aS'delta_2_LIWC_social'
p913
aS'delta_2_LIWC_space'
p914
aS'delta_2_LIWC_swear'
p915
aS'delta_2_LIWC_tentat'
p916
aS'delta_2_LIWC_they'
p917
aS'delta_2_LIWC_time'
p918
aS'delta_2_LIWC_verb'
p919
aS'delta_2_LIWC_we'
p920
aS'delta_2_LIWC_work'
p921
aS'delta_2_LIWC_you'
p922
aS'delta_2_applause_feature'
p923
aS'delta_2_thank_you_feature'
p924
aS'delta_2_max_phone_length'
p925
aS'delta_2_mean_phone_length'
p926
aS'delta_2_min_phone_length'
p927
aS'delta_2_substring'
p928
aS'delta_2_word_overlap'
p929
aS'delta_2_cosine'
p930
a.